target datalayout = "e-m:e-p270:32:32-p271:32:32-p272:64:64-i64:64-i128:128-f80:128-n8:16:32:64-S128"
target triple = "x86_64-unknown-linux-gnu"

%"class.llvh::PrettyStackTraceEntry" = type { ptr, ptr }
%struct.__va_list_tag = type { i32, i32, ptr, ptr }
%"class.llvh::PrettyStackTraceFormat" = type { %"class.llvh::PrettyStackTraceEntry", %"class.llvh::SmallVector" }
%"class.llvh::SmallVector" = type { %"class.llvh::SmallVectorImpl", %"struct.llvh::SmallVectorStorage" }
%"class.llvh::SmallVectorImpl" = type { %"class.llvh::SmallVectorTemplateBase" }
%"class.llvh::SmallVectorTemplateBase" = type { %"class.llvh::SmallVectorTemplateCommon" }
%"class.llvh::SmallVectorTemplateCommon" = type { %"class.llvh::SmallVectorBase" }
%"class.llvh::SmallVectorBase" = type { ptr, i32, i32 }
%"struct.llvh::SmallVectorStorage" = type { [32 x %"struct.llvh::AlignedCharArrayUnion"] }
%"struct.llvh::AlignedCharArrayUnion" = type { %"struct.llvh::AlignedCharArray" }
%"struct.llvh::AlignedCharArray" = type { [1 x i8] }

@_ZTVN4llvh21PrettyStackTraceEntryE = hidden unnamed_addr constant { [5 x ptr] } { [5 x ptr] [ptr null, ptr null, ptr @_ZN4llvh21PrettyStackTraceEntryD1Ev, ptr @_ZN4llvh21PrettyStackTraceEntryD0Ev, ptr @__cxa_pure_virtual] }, align 8
@_ZTVN4llvh22PrettyStackTraceFormatE = hidden unnamed_addr constant { [5 x ptr] } { [5 x ptr] [ptr null, ptr null, ptr @_ZN4llvh22PrettyStackTraceFormatD2Ev, ptr @_ZN4llvh22PrettyStackTraceFormatD0Ev, ptr @_ZNK4llvh22PrettyStackTraceFormat5printERNS_11raw_ostreamE] }, align 8

; Function Attrs: mustprogress nounwind uwtable
define linkonce_odr hidden void @_ZN4llvh15SmallVectorBaseC2EPvm(ptr noundef nonnull align 8 dereferenceable(16) %this, ptr noundef %FirstEl, i64 noundef %Capacity) unnamed_addr #0 comdat align 2 {
entry:
  %this.addr = alloca ptr, align 8
  %FirstEl.addr = alloca ptr, align 8
  %Capacity.addr = alloca i64, align 8
  store ptr %this, ptr %this.addr, align 8
  store ptr %FirstEl, ptr %FirstEl.addr, align 8
  store i64 %Capacity, ptr %Capacity.addr, align 8
  %this1 = load ptr, ptr %this.addr, align 8
  %BeginX = getelementptr inbounds %"class.llvh::SmallVectorBase", ptr %this1, i32 0, i32 0
  %0 = load ptr, ptr %FirstEl.addr, align 8
  store ptr %0, ptr %BeginX, align 8
  %Size = getelementptr inbounds %"class.llvh::SmallVectorBase", ptr %this1, i32 0, i32 1
  store i32 0, ptr %Size, align 8
  %Capacity2 = getelementptr inbounds %"class.llvh::SmallVectorBase", ptr %this1, i32 0, i32 2
  %1 = load i64, ptr %Capacity.addr, align 8
  %conv = trunc i64 %1 to i32
  store i32 %conv, ptr %Capacity2, align 4
  ret void
}

; Function Attrs: mustprogress nounwind uwtable
define linkonce_odr hidden noundef ptr @_ZNK4llvh25SmallVectorTemplateCommonIcvE10getFirstElEv(ptr noundef nonnull align 8 dereferenceable(16) %this) #0 comdat align 2 {
entry:
  %this.addr = alloca ptr, align 8
  store ptr %this, ptr %this.addr, align 8
  %this1 = load ptr, ptr %this.addr, align 8
  %add.ptr = getelementptr inbounds i8, ptr %this1, i64 16
  ret ptr %add.ptr
}

; Function Attrs: mustprogress nounwind uwtable
define linkonce_odr hidden void @_ZN4llvh25SmallVectorTemplateCommonIcvEC2Em(ptr noundef nonnull align 8 dereferenceable(16) %this, i64 noundef %Size) unnamed_addr #0 comdat align 2 {
entry:
  %this.addr = alloca ptr, align 8
  %Size.addr = alloca i64, align 8
  store ptr %this, ptr %this.addr, align 8
  store i64 %Size, ptr %Size.addr, align 8
  %this1 = load ptr, ptr %this.addr, align 8
  %call = call noundef ptr @_ZNK4llvh25SmallVectorTemplateCommonIcvE10getFirstElEv(ptr noundef nonnull align 8 dereferenceable(16) %this1)
  %0 = load i64, ptr %Size.addr, align 8
  call void @_ZN4llvh15SmallVectorBaseC2EPvm(ptr noundef nonnull align 8 dereferenceable(16) %this1, ptr noundef %call, i64 noundef %0)
  ret void
}

; Function Attrs: mustprogress nounwind uwtable
define linkonce_odr hidden void @_ZN4llvh25SmallVectorTemplateCommonIcvE8grow_podEmm(ptr noundef nonnull align 8 dereferenceable(16) %this, i64 noundef %MinCapacity, i64 noundef %TSize) #0 comdat align 2 {
entry:
  %this.addr = alloca ptr, align 8
  %MinCapacity.addr = alloca i64, align 8
  %TSize.addr = alloca i64, align 8
  store ptr %this, ptr %this.addr, align 8
  store i64 %MinCapacity, ptr %MinCapacity.addr, align 8
  store i64 %TSize, ptr %TSize.addr, align 8
  %this1 = load ptr, ptr %this.addr, align 8
  %call = call noundef ptr @_ZNK4llvh25SmallVectorTemplateCommonIcvE10getFirstElEv(ptr noundef nonnull align 8 dereferenceable(16) %this1)
  %0 = load i64, ptr %MinCapacity.addr, align 8
  %1 = load i64, ptr %TSize.addr, align 8
  call void @_ZN4llvh15SmallVectorBase8grow_podEPvmm(ptr noundef nonnull align 8 dereferenceable(16) %this1, ptr noundef %call, i64 noundef %0, i64 noundef %1)
  ret void
}

; Function Attrs: mustprogress nounwind uwtable
define linkonce_odr hidden void @_ZN4llvh23SmallVectorTemplateBaseIcLb1EEC2Em(ptr noundef nonnull align 8 dereferenceable(16) %this, i64 noundef %Size) unnamed_addr #0 comdat align 2 {
entry:
  %this.addr = alloca ptr, align 8
  %Size.addr = alloca i64, align 8
  store ptr %this, ptr %this.addr, align 8
  store i64 %Size, ptr %Size.addr, align 8
  %this1 = load ptr, ptr %this.addr, align 8
  %0 = load i64, ptr %Size.addr, align 8
  call void @_ZN4llvh25SmallVectorTemplateCommonIcvEC2Em(ptr noundef nonnull align 8 dereferenceable(16) %this1, i64 noundef %0)
  ret void
}

; Function Attrs: mustprogress nounwind uwtable
define linkonce_odr hidden void @_ZN4llvh23SmallVectorTemplateBaseIcLb1EE4growEm(ptr noundef nonnull align 8 dereferenceable(16) %this, i64 noundef %MinSize) #0 comdat align 2 {
entry:
  %this.addr = alloca ptr, align 8
  %MinSize.addr = alloca i64, align 8
  store ptr %this, ptr %this.addr, align 8
  store i64 %MinSize, ptr %MinSize.addr, align 8
  %this1 = load ptr, ptr %this.addr, align 8
  %0 = load i64, ptr %MinSize.addr, align 8
  call void @_ZN4llvh25SmallVectorTemplateCommonIcvE8grow_podEmm(ptr noundef nonnull align 8 dereferenceable(16) %this1, i64 noundef %0, i64 noundef 1)
  ret void
}

; Function Attrs: mustprogress nounwind uwtable
define linkonce_odr hidden noundef i64 @_ZNK4llvh15SmallVectorBase8capacityEv(ptr noundef nonnull align 8 dereferenceable(16) %this) #0 comdat align 2 {
entry:
  %this.addr = alloca ptr, align 8
  store ptr %this, ptr %this.addr, align 8
  %this1 = load ptr, ptr %this.addr, align 8
  %Capacity = getelementptr inbounds %"class.llvh::SmallVectorBase", ptr %this1, i32 0, i32 2
  %0 = load i32, ptr %Capacity, align 4
  %conv = zext i32 %0 to i64
  ret i64 %conv
}

; Function Attrs: mustprogress nounwind uwtable
define linkonce_odr hidden void @_ZN4llvh15SmallVectorBase8set_sizeEm(ptr noundef nonnull align 8 dereferenceable(16) %this, i64 noundef %Size) #0 comdat align 2 {
entry:
  %this.addr = alloca ptr, align 8
  %Size.addr = alloca i64, align 8
  store ptr %this, ptr %this.addr, align 8
  store i64 %Size, ptr %Size.addr, align 8
  %this1 = load ptr, ptr %this.addr, align 8
  %0 = load i64, ptr %Size.addr, align 8
  %conv = trunc i64 %0 to i32
  %Size2 = getelementptr inbounds %"class.llvh::SmallVectorBase", ptr %this1, i32 0, i32 1
  store i32 %conv, ptr %Size2, align 8
  ret void
}

; Function Attrs: mustprogress nounwind uwtable
define linkonce_odr hidden void @_ZN4llvh23SmallVectorTemplateBaseIcLb1EE13destroy_rangeEPcS2_(ptr noundef %0, ptr noundef %1) #0 comdat align 2 {
entry:
  %.addr = alloca ptr, align 8
  %.addr1 = alloca ptr, align 8
  store ptr %0, ptr %.addr, align 8
  store ptr %1, ptr %.addr1, align 8
  ret void
}

; Function Attrs: mustprogress nounwind uwtable
define linkonce_odr hidden noundef i64 @_ZNK4llvh15SmallVectorBase4sizeEv(ptr noundef nonnull align 8 dereferenceable(16) %this) #0 comdat align 2 {
entry:
  %this.addr = alloca ptr, align 8
  store ptr %this, ptr %this.addr, align 8
  %this1 = load ptr, ptr %this.addr, align 8
  %Size = getelementptr inbounds %"class.llvh::SmallVectorBase", ptr %this1, i32 0, i32 1
  %0 = load i32, ptr %Size, align 8
  %conv = zext i32 %0 to i64
  ret i64 %conv
}

; Function Attrs: mustprogress nounwind uwtable
define linkonce_odr hidden void @_ZN4llvh15SmallVectorImplIcEC2Ej(ptr noundef nonnull align 8 dereferenceable(16) %this, i32 noundef %N) unnamed_addr #0 comdat align 2 {
entry:
  %this.addr = alloca ptr, align 8
  %N.addr = alloca i32, align 4
  store ptr %this, ptr %this.addr, align 8
  store i32 %N, ptr %N.addr, align 4
  %this1 = load ptr, ptr %this.addr, align 8
  %0 = load i32, ptr %N.addr, align 4
  %conv = zext i32 %0 to i64
  call void @_ZN4llvh23SmallVectorTemplateBaseIcLb1EEC2Em(ptr noundef nonnull align 8 dereferenceable(16) %this1, i64 noundef %conv)
  ret void
}

; Function Attrs: mustprogress nounwind uwtable
define linkonce_odr hidden noundef ptr @_ZN4llvh25SmallVectorTemplateCommonIcvE4dataEv(ptr noundef nonnull align 8 dereferenceable(16) %this) #0 comdat align 2 {
entry:
  %this.addr.i = alloca ptr, align 8
  %this.addr = alloca ptr, align 8
  store ptr %this, ptr %this.addr, align 8
  %this1 = load ptr, ptr %this.addr, align 8
  store ptr %this1, ptr %this.addr.i, align 8
  %this1.i = load ptr, ptr %this.addr.i, align 8
  %0 = load ptr, ptr %this1.i, align 8
  ret ptr %0
}

; Function Attrs: mustprogress nounwind uwtable
define linkonce_odr hidden void @_ZN4llvh15SmallVectorImplIcE6resizeEm(ptr noundef nonnull align 8 dereferenceable(16) %this, i64 noundef %N) #0 comdat align 2 {
entry:
  %this.addr.i.i20 = alloca ptr, align 8
  %this.addr.i21 = alloca ptr, align 8
  %this.addr.i.i = alloca ptr, align 8
  %this.addr.i18 = alloca ptr, align 8
  %this.addr.i16 = alloca ptr, align 8
  %this.addr.i = alloca ptr, align 8
  %this.addr = alloca ptr, align 8
  %N.addr = alloca i64, align 8
  %I = alloca ptr, align 8
  %E = alloca ptr, align 8
  store ptr %this, ptr %this.addr, align 8
  store i64 %N, ptr %N.addr, align 8
  %this1 = load ptr, ptr %this.addr, align 8
  %0 = load i64, ptr %N.addr, align 8
  %call = call noundef i64 @_ZNK4llvh15SmallVectorBase4sizeEv(ptr noundef nonnull align 8 dereferenceable(16) %this1)
  %cmp = icmp ult i64 %0, %call
  br i1 %cmp, label %if.then, label %if.else

if.then:                                          ; preds = %entry
  store ptr %this1, ptr %this.addr.i16, align 8
  %this1.i17 = load ptr, ptr %this.addr.i16, align 8
  %1 = load ptr, ptr %this1.i17, align 8
  %2 = load i64, ptr %N.addr, align 8
  %add.ptr = getelementptr inbounds i8, ptr %1, i64 %2
  store ptr %this1, ptr %this.addr.i21, align 8
  %this1.i22 = load ptr, ptr %this.addr.i21, align 8
  store ptr %this1.i22, ptr %this.addr.i.i20, align 8
  %this1.i.i23 = load ptr, ptr %this.addr.i.i20, align 8
  %3 = load ptr, ptr %this1.i.i23, align 8
  %call2.i24 = call noundef i64 @_ZNK4llvh15SmallVectorBase4sizeEv(ptr noundef nonnull align 8 dereferenceable(16) %this1.i22)
  %add.ptr.i25 = getelementptr inbounds i8, ptr %3, i64 %call2.i24
  call void @_ZN4llvh23SmallVectorTemplateBaseIcLb1EE13destroy_rangeEPcS2_(ptr noundef %add.ptr, ptr noundef %add.ptr.i25)
  %4 = load i64, ptr %N.addr, align 8
  call void @_ZN4llvh15SmallVectorBase8set_sizeEm(ptr noundef nonnull align 8 dereferenceable(16) %this1, i64 noundef %4)
  br label %if.end15

if.else:                                          ; preds = %entry
  %5 = load i64, ptr %N.addr, align 8
  %call4 = call noundef i64 @_ZNK4llvh15SmallVectorBase4sizeEv(ptr noundef nonnull align 8 dereferenceable(16) %this1)
  %cmp5 = icmp ugt i64 %5, %call4
  br i1 %cmp5, label %if.then6, label %if.end14

if.then6:                                         ; preds = %if.else
  %call7 = call noundef i64 @_ZNK4llvh15SmallVectorBase8capacityEv(ptr noundef nonnull align 8 dereferenceable(16) %this1)
  %6 = load i64, ptr %N.addr, align 8
  %cmp8 = icmp ult i64 %call7, %6
  br i1 %cmp8, label %if.then9, label %if.end

if.then9:                                         ; preds = %if.then6
  %7 = load i64, ptr %N.addr, align 8
  call void @_ZN4llvh23SmallVectorTemplateBaseIcLb1EE4growEm(ptr noundef nonnull align 8 dereferenceable(16) %this1, i64 noundef %7)
  br label %if.end

if.end:                                           ; preds = %if.then9, %if.then6
  store ptr %this1, ptr %this.addr.i18, align 8
  %this1.i19 = load ptr, ptr %this.addr.i18, align 8
  store ptr %this1.i19, ptr %this.addr.i.i, align 8
  %this1.i.i = load ptr, ptr %this.addr.i.i, align 8
  %8 = load ptr, ptr %this1.i.i, align 8
  %call2.i = call noundef i64 @_ZNK4llvh15SmallVectorBase4sizeEv(ptr noundef nonnull align 8 dereferenceable(16) %this1.i19)
  %add.ptr.i = getelementptr inbounds i8, ptr %8, i64 %call2.i
  store ptr %add.ptr.i, ptr %I, align 8
  store ptr %this1, ptr %this.addr.i, align 8
  %this1.i = load ptr, ptr %this.addr.i, align 8
  %9 = load ptr, ptr %this1.i, align 8
  %10 = load i64, ptr %N.addr, align 8
  %add.ptr12 = getelementptr inbounds i8, ptr %9, i64 %10
  store ptr %add.ptr12, ptr %E, align 8
  br label %for.cond

for.cond:                                         ; preds = %for.inc, %if.end
  %11 = load ptr, ptr %I, align 8
  %12 = load ptr, ptr %E, align 8
  %cmp13 = icmp ne ptr %11, %12
  br i1 %cmp13, label %for.body, label %for.end

for.body:                                         ; preds = %for.cond
  %13 = load ptr, ptr %I, align 8
  store i8 0, ptr %13, align 1
  br label %for.inc

for.inc:                                          ; preds = %for.body
  %14 = load ptr, ptr %I, align 8
  %incdec.ptr = getelementptr inbounds i8, ptr %14, i32 1
  store ptr %incdec.ptr, ptr %I, align 8
  br label %for.cond, !llvm.loop !4

for.end:                                          ; preds = %for.cond
  %15 = load i64, ptr %N.addr, align 8
  call void @_ZN4llvh15SmallVectorBase8set_sizeEm(ptr noundef nonnull align 8 dereferenceable(16) %this1, i64 noundef %15)
  br label %if.end14

if.end14:                                         ; preds = %for.end, %if.else
  br label %if.end15

if.end15:                                         ; preds = %if.end14, %if.then
  ret void
}

; Function Attrs: mustprogress nounwind uwtable
define linkonce_odr hidden void @_ZN4llvh11SmallVectorIcLj32EEC2Ev(ptr noundef nonnull align 8 dereferenceable(48) %this) unnamed_addr #0 comdat align 2 {
entry:
  %this.addr = alloca ptr, align 8
  store ptr %this, ptr %this.addr, align 8
  %this1 = load ptr, ptr %this.addr, align 8
  call void @_ZN4llvh15SmallVectorImplIcEC2Ej(ptr noundef nonnull align 8 dereferenceable(16) %this1, i32 noundef 32)
  ret void
}

; Function Attrs: mustprogress nounwind uwtable
define hidden void @_ZN4llvh21PrettyStackTraceEntryC2Ev(ptr noundef nonnull align 8 dereferenceable(16) %this) unnamed_addr #0 align 2 {
entry:
  %this.addr = alloca ptr, align 8
  store ptr %this, ptr %this.addr, align 8
  %this1 = load ptr, ptr %this.addr, align 8
  store ptr getelementptr inbounds ({ [5 x ptr] }, ptr @_ZTVN4llvh21PrettyStackTraceEntryE, i32 0, i32 0, i32 2), ptr %this1, align 8
  ret void
}

; Function Attrs: mustprogress nounwind uwtable
define hidden void @_ZN4llvh22PrettyStackTraceFormatC2EPKcz(ptr noundef nonnull align 8 dereferenceable(64) %this, ptr noundef %Format, ...) unnamed_addr #0 align 2 {
entry:
  %this.addr = alloca ptr, align 8
  %Format.addr = alloca ptr, align 8
  %AP = alloca [1 x %struct.__va_list_tag], align 16
  %SizeOrError = alloca i32, align 4
  %Size = alloca i32, align 4
  store ptr %this, ptr %this.addr, align 8
  store ptr %Format, ptr %Format.addr, align 8
  %this1 = load ptr, ptr %this.addr, align 8
  call void @_ZN4llvh21PrettyStackTraceEntryC2Ev(ptr noundef nonnull align 8 dereferenceable(16) %this1)
  store ptr getelementptr inbounds ({ [5 x ptr] }, ptr @_ZTVN4llvh22PrettyStackTraceFormatE, i32 0, i32 0, i32 2), ptr %this1, align 8
  %Str = getelementptr inbounds %"class.llvh::PrettyStackTraceFormat", ptr %this1, i32 0, i32 1
  call void @_ZN4llvh11SmallVectorIcLj32EEC2Ev(ptr noundef nonnull align 8 dereferenceable(48) %Str)
  %arraydecay = getelementptr inbounds [1 x %struct.__va_list_tag], ptr %AP, i64 0, i64 0
  call void @llvm.va_start(ptr %arraydecay)
  %0 = load ptr, ptr %Format.addr, align 8
  %arraydecay2 = getelementptr inbounds [1 x %struct.__va_list_tag], ptr %AP, i64 0, i64 0
  %call = call i32 @vsnprintf(ptr noundef null, i64 noundef 0, ptr noundef %0, ptr noundef %arraydecay2) #10
  store i32 %call, ptr %SizeOrError, align 4
  %arraydecay3 = getelementptr inbounds [1 x %struct.__va_list_tag], ptr %AP, i64 0, i64 0
  call void @llvm.va_end(ptr %arraydecay3)
  %1 = load i32, ptr %SizeOrError, align 4
  %cmp = icmp slt i32 %1, 0
  br i1 %cmp, label %if.then, label %if.end

if.then:                                          ; preds = %entry
  br label %return

if.end:                                           ; preds = %entry
  %2 = load i32, ptr %SizeOrError, align 4
  %add = add nsw i32 %2, 1
  store i32 %add, ptr %Size, align 4
  %Str4 = getelementptr inbounds %"class.llvh::PrettyStackTraceFormat", ptr %this1, i32 0, i32 1
  %3 = load i32, ptr %Size, align 4
  %conv = sext i32 %3 to i64
  call void @_ZN4llvh15SmallVectorImplIcE6resizeEm(ptr noundef nonnull align 8 dereferenceable(16) %Str4, i64 noundef %conv)
  %arraydecay5 = getelementptr inbounds [1 x %struct.__va_list_tag], ptr %AP, i64 0, i64 0
  call void @llvm.va_start(ptr %arraydecay5)
  %Str6 = getelementptr inbounds %"class.llvh::PrettyStackTraceFormat", ptr %this1, i32 0, i32 1
  %call7 = call noundef ptr @_ZN4llvh25SmallVectorTemplateCommonIcvE4dataEv(ptr noundef nonnull align 8 dereferenceable(16) %Str6)
  %4 = load i32, ptr %Size, align 4
  %conv8 = sext i32 %4 to i64
  %5 = load ptr, ptr %Format.addr, align 8
  %arraydecay9 = getelementptr inbounds [1 x %struct.__va_list_tag], ptr %AP, i64 0, i64 0
  %call10 = call i32 @vsnprintf(ptr noundef %call7, i64 noundef %conv8, ptr noundef %5, ptr noundef %arraydecay9) #10
  %arraydecay11 = getelementptr inbounds [1 x %struct.__va_list_tag], ptr %AP, i64 0, i64 0
  call void @llvm.va_end(ptr %arraydecay11)
  br label %return

return:                                           ; preds = %if.end, %if.then
  ret void
}