; Function Attrs: mustprogress nounwind uwtable
define hidden void @_ZN4llvh22PrettyStackTraceFormatC2EPKcz(ptr noundef nonnull align 8 dereferenceable(64) %this, ptr nocapture noundef readonly %Format, ...) unnamed_addr #4 align 2 {
entry:
  %AP = alloca [1 x %struct.__va_list_tag], align 16
  store ptr getelementptr inbounds ({ [5 x ptr] }, ptr @_ZTVN4llvh22PrettyStackTraceFormatE, i64 0, i32 0, i64 2), ptr %this, align 8
  %Str = getelementptr inbounds i8, ptr %this, i64 16
  %add.ptr.i.i.i.i.i = getelementptr inbounds i8, ptr %this, i64 32
  store ptr %add.ptr.i.i.i.i.i, ptr %Str, align 8
  %Size.i.i.i.i.i = getelementptr inbounds i8, ptr %this, i64 24
  store i32 0, ptr %Size.i.i.i.i.i, align 8
  %Capacity2.i.i.i.i.i = getelementptr inbounds i8, ptr %this, i64 28
  store i32 32, ptr %Capacity2.i.i.i.i.i, align 4
  call void @llvm.va_start(ptr nonnull %AP)
  %call = call i32 @vsnprintf(ptr noundef null, i64 noundef 0, ptr noundef %Format, ptr noundef nonnull %AP) #15
  call void @llvm.va_end(ptr nonnull %AP)
  %cmp = icmp slt i32 %call, 0
  br i1 %cmp, label %return, label %if.end

if.end:                                           ; preds = %entry
  %add = add nuw nsw i32 %call, 1
  %conv = zext nneg i32 %add to i64
  %0 = load i32, ptr %Size.i.i.i.i.i, align 8
  %cmp.i = icmp ugt i32 %0, %add
  br i1 %cmp.i, label %if.end15.sink.split.i, label %if.else.i

if.else.i:                                        ; preds = %if.end
  %cmp5.i.not = icmp ugt i32 %0, %call
  br i1 %cmp5.i.not, label %_ZN4llvh15SmallVectorImplIcE6resizeEm.exit, label %if.then6.i

if.then6.i:                                       ; preds = %if.else.i
  %1 = load i32, ptr %Capacity2.i.i.i.i.i, align 4
  %cmp8.i.not = icmp ugt i32 %1, %call
  br i1 %cmp8.i.not, label %if.end.i, label %if.then9.i

if.then9.i:                                       ; preds = %if.then6.i
  call void @_ZN4llvh15SmallVectorBase8grow_podEPvmm(ptr noundef nonnull align 8 dereferenceable(16) %Str, ptr noundef nonnull %add.ptr.i.i.i.i.i, i64 noundef %conv, i64 noundef 1) #15
  %.pre.i = load i32, ptr %Size.i.i.i.i.i, align 8
  br label %if.end.i

if.end.i:                                         ; preds = %if.then9.i, %if.then6.i
  %conv.i17.pre-phi.i.in = phi i32 [ %.pre.i, %if.then9.i ], [ %0, %if.then6.i ]
  %cmp13.not20.i = icmp eq i32 %conv.i17.pre-phi.i.in, %add
  br i1 %cmp13.not20.i, label %if.end15.sink.split.i, label %for.body.preheader.i

for.body.preheader.i:                             ; preds = %if.end.i
  %conv.i17.pre-phi.i = zext i32 %conv.i17.pre-phi.i.in to i64
  %2 = load ptr, ptr %Str, align 8
  %add.ptr.i.i = getelementptr i8, ptr %2, i64 %conv.i17.pre-phi.i
  %3 = sub nsw i64 %conv, %conv.i17.pre-phi.i
  call void @llvm.memset.p0.i64(ptr align 1 %add.ptr.i.i, i8 0, i64 %3, i1 false)
  br label %if.end15.sink.split.i

if.end15.sink.split.i:                            ; preds = %for.body.preheader.i, %if.end.i, %if.end
  store i32 %add, ptr %Size.i.i.i.i.i, align 8
  br label %_ZN4llvh15SmallVectorImplIcE6resizeEm.exit

_ZN4llvh15SmallVectorImplIcE6resizeEm.exit:       ; preds = %if.else.i, %if.end15.sink.split.i
  call void @llvm.va_start(ptr nonnull %AP)
  %4 = load ptr, ptr %Str, align 8
  %call10 = call i32 @vsnprintf(ptr noundef %4, i64 noundef %conv, ptr noundef %Format, ptr noundef nonnull %AP) #15
  call void @llvm.va_end(ptr nonnull %AP)
  br label %return

return:                                           ; preds = %entry, %_ZN4llvh15SmallVectorImplIcE6resizeEm.exit
  ret void
}